; ModuleID = '15/274.c'
source_filename = "15/274.c"
target datalayout = "e-m:e-p270:32:32-p271:32:32-p272:64:64-i64:64-f80:128-n8:16:32:64-S128"
target triple = "x86_64-pc-linux-gnu"

@.str = private unnamed_addr constant [3 x i8] c"%d\00", align 1
@.str.1 = private unnamed_addr constant [4 x i8] c"%d\0A\00", align 1

; Function Attrs: noinline nounwind uwtable
define dso_local i32 @main() #0 {
  %1 = alloca i32, align 4
  %2 = alloca i32, align 4
  %3 = alloca i32, align 4
  %4 = alloca i32, align 4
  %5 = alloca i32, align 4
  %6 = alloca i32, align 4
  %7 = alloca i32, align 4
  %8 = alloca i32, align 4
  %9 = alloca i32, align 4
  %10 = alloca i32, align 4
  %11 = alloca i32, align 4
  store i32 0, i32* %1, align 4
  %12 = call i32 (i8*, ...) @__isoc99_scanf(i8* getelementptr inbounds ([3 x i8], [3 x i8]* @.str, i64 0, i64 0), i32* %2)
  store i32 1, i32* %8, align 4
  br label %13

13:                                               ; preds = %25, %0
  %14 = load i32, i32* %8, align 4
  %15 = load i32, i32* %2, align 4
  %16 = load i32, i32* %2, align 4
  %17 = mul nsw i32 %15, %16
  %18 = icmp sle i32 %14, %17
  br i1 %18, label %19, label %28

19:                                               ; preds = %13
  %20 = call i32 (i8*, ...) @__isoc99_scanf(i8* getelementptr inbounds ([3 x i8], [3 x i8]* @.str, i64 0, i64 0), i32* %10)
  %21 = load i32, i32* %10, align 4
  %22 = icmp eq i32 %21, 0
  br i1 %22, label %23, label %24

23:                                               ; preds = %19
  br label %28

24:                                               ; preds = %19
  br label %25

25:                                               ; preds = %24
  %26 = load i32, i32* %8, align 4
  %27 = add nsw i32 %26, 1
  store i32 %27, i32* %8, align 4
  br label %13

28:                                               ; preds = %23, %13
  store i32 1, i32* %9, align 4
  br label %29

29:                                               ; preds = %46, %28
  %30 = load i32, i32* %9, align 4
  %31 = load i32, i32* %2, align 4
  %32 = load i32, i32* %2, align 4
  %33 = mul nsw i32 %31, %32
  %34 = load i32, i32* %8, align 4
  %35 = sub nsw i32 %33, %34
  %36 = icmp sle i32 %30, %35
  br i1 %36, label %37, label %49

37:                                               ; preds = %29
  %38 = call i32 (i8*, ...) @__isoc99_scanf(i8* getelementptr inbounds ([3 x i8], [3 x i8]* @.str, i64 0, i64 0), i32* %10)
  %39 = load i32, i32* %10, align 4
  %40 = icmp eq i32 %39, 0
  br i1 %40, label %41, label %45

41:                                               ; preds = %37
  %42 = load i32, i32* %9, align 4
  %43 = load i32, i32* %8, align 4
  %44 = add nsw i32 %42, %43
  store i32 %44, i32* %7, align 4
  br label %45

45:                                               ; preds = %41, %37
  br label %46

46:                                               ; preds = %45
  %47 = load i32, i32* %9, align 4
  %48 = add nsw i32 %47, 1
  store i32 %48, i32* %9, align 4
  br label %29

49:                                               ; preds = %29
  %50 = load i32, i32* %8, align 4
  %51 = load i32, i32* %2, align 4
  %52 = sdiv i32 %50, %51
  %53 = add nsw i32 %52, 1
  store i32 %53, i32* %3, align 4
  %54 = load i32, i32* %8, align 4
  %55 = load i32, i32* %2, align 4
  %56 = srem i32 %54, %55
  store i32 %56, i32* %4, align 4
  %57 = load i32, i32* %7, align 4
  %58 = load i32, i32* %2, align 4
  %59 = sdiv i32 %57, %58
  %60 = add nsw i32 %59, 1
  store i32 %60, i32* %5, align 4
  %61 = load i32, i32* %7, align 4
  %62 = load i32, i32* %2, align 4
  %63 = srem i32 %61, %62
  store i32 %63, i32* %6, align 4
  %64 = load i32, i32* %5, align 4
  %65 = load i32, i32* %3, align 4
  %66 = sub nsw i32 %64, %65
  %67 = sub nsw i32 %66, 1
  %68 = load i32, i32* %6, align 4
  %69 = load i32, i32* %4, align 4
  %70 = sub nsw i32 %68, %69
  %71 = sub nsw i32 %70, 1
  %72 = mul nsw i32 %67, %71
  store i32 %72, i32* %11, align 4
  %73 = load i32, i32* %11, align 4
  %74 = call i32 (i8*, ...) @printf(i8* getelementptr inbounds ([4 x i8], [4 x i8]* @.str.1, i64 0, i64 0), i32 %73)
  ret i32 0
}

declare dso_local i32 @__isoc99_scanf(i8*, ...) #1

declare dso_local i32 @printf(i8*, ...) #1


!llvm.module.flags = !{!0}
!llvm.ident = !{!1}

!0 = !{i32 1, !"wchar_size", i32 4}
!1 = !{!"clang version 10.0.0-4ubuntu1 "}
